; Function Attrs: mustprogress nounwind uwtable
define hidden void @_ZN6hermes2vm23BigUint64ArrayBuildMetaEPKNS0_6GCCellERNS0_8Metadata7BuilderE(ptr noundef %cell, ptr noundef nonnull align 8 dereferenceable(224) %mb) local_unnamed_addr #1 {
entry:
  %hasValue_.i.i.i = getelementptr inbounds nuw i8, ptr %mb, i64 212
  %0 = load i8, ptr %hasValue_.i.i.i, align 4
  %tobool.i.i.i = trunc i8 %0 to i1
  br i1 %tobool.i.i.i, label %_ZN6hermes2vm23TypedArrayBaseBuildMetaEPKNS0_6GCCellERNS0_8Metadata7BuilderE.exit, label %if.then.i.i

if.then.i.i:                                      ; preds = %entry
  %jsObjectOverlapSlots_.i.i = getelementptr inbounds nuw i8, ptr %mb, i64 208
  store i32 3, ptr %jsObjectOverlapSlots_.i.i, align 8
  store i8 1, ptr %hasValue_.i.i.i, align 4
  br label %_ZN6hermes2vm23TypedArrayBaseBuildMetaEPKNS0_6GCCellERNS0_8Metadata7BuilderE.exit

_ZN6hermes2vm23TypedArrayBaseBuildMetaEPKNS0_6GCCellERNS0_8Metadata7BuilderE.exit: ; preds = %entry, %if.then.i.i
  tail call void @_ZN6hermes2vm17JSObjectBuildMetaEPKNS0_6GCCellERNS0_8Metadata7BuilderE(ptr noundef %cell, ptr noundef nonnull align 8 dereferenceable(224) %mb) #10
  %buffer_.i = getelementptr inbounds nuw i8, ptr %cell, i64 20
  tail call void @_ZN6hermes2vm8Metadata7Builder8addFieldEPKcPKNS0_13GCPointerBaseE(ptr noundef nonnull align 8 dereferenceable(224) %mb, ptr noundef nonnull @.str.12, ptr noundef nonnull %buffer_.i) #10
  %vtp_.i = getelementptr inbounds nuw i8, ptr %mb, i64 216
  store ptr @_ZN6hermes2vm12JSTypedArrayImLNS0_8CellKindE45EE2vtE, ptr %vtp_.i, align 8
  ret void
}